target datalayout = "e-m:e-p270:32:32-p271:32:32-p272:64:64-i64:64-i128:128-f80:128-n8:16:32:64-S128"
target triple = "x86_64-pc-linux-gnu"

%class.VectorSet = type { i32, ptr, i32, ptr }

; Function Attrs: mustprogress nounwind uwtable
define linkonce_odr hidden void @_ZN9VectorSet5resetEv(ptr noundef nonnull align 8 dereferenceable(32) %0) #1 comdat align 2 {
  %2 = alloca ptr, align 8
  store ptr %0, ptr %2, align 8
  %3 = load ptr, ptr %2, align 8
  %4 = getelementptr inbounds %class.VectorSet, ptr %3, i32 0, i32 0
  store i32 0, ptr %4, align 8
  ret void
}

; Function Attrs: mustprogress nounwind uwtable
define linkonce_odr hidden void @_ZN9VectorSet5clearEv(ptr noundef nonnull align 8 dereferenceable(32) %0) #1 comdat align 2 {
  %2 = alloca ptr, align 8
  store ptr %0, ptr %2, align 8
  %3 = load ptr, ptr %2, align 8
  call void @_ZN9VectorSet5resetEv(ptr noundef nonnull align 8 dereferenceable(32) %3)
  ret void
}

; Function Attrs: mustprogress nounwind uwtable
define hidden noundef zeroext i1 @_ZNK22ShenandoahBarrierSetC214optimize_loopsEP14PhaseIdealLoop12LoopOptsModeR9VectorSetR10Node_StackR9Node_List(ptr noundef nonnull align 8 dereferenceable(8) %0, ptr noundef %1, i32 noundef %2, ptr noundef nonnull align 8 dereferenceable(32) %3, ptr noundef nonnull align 8 dereferenceable(32) %4, ptr noundef nonnull align 8 dereferenceable(28) %5) unnamed_addr #1 align 2 {
  %7 = alloca i1, align 1
  %8 = alloca ptr, align 8
  %9 = alloca ptr, align 8
  %10 = alloca i32, align 4
  %11 = alloca ptr, align 8
  %12 = alloca ptr, align 8
  %13 = alloca ptr, align 8
  store ptr %0, ptr %8, align 8
  store ptr %1, ptr %9, align 8
  store i32 %2, ptr %10, align 4
  store ptr %3, ptr %11, align 8
  store ptr %4, ptr %12, align 8
  store ptr %5, ptr %13, align 8
  %14 = load i32, ptr %10, align 4
  %15 = icmp eq i32 %14, 3
  br i1 %15, label %16, label %18

16:                                               ; preds = %6
  %17 = load ptr, ptr %9, align 8
  call void @_ZN26ShenandoahBarrierC2Support14pin_and_expandEP14PhaseIdealLoop(ptr noundef %17)
  store i1 true, ptr %7, align 1
  br label %29

18:                                               ; preds = %6
  %19 = load i32, ptr %10, align 4
  %20 = icmp eq i32 %19, 4
  br i1 %20, label %21, label %27

21:                                               ; preds = %18
  %22 = load ptr, ptr %11, align 8
  call void @_ZN9VectorSet5clearEv(ptr noundef nonnull align 8 dereferenceable(32) %22)
  %23 = load ptr, ptr %11, align 8
  %24 = load ptr, ptr %12, align 8
  %25 = load ptr, ptr %13, align 8
  %26 = load ptr, ptr %9, align 8
  call void @_ZN26ShenandoahBarrierC2Support24optimize_after_expansionER9VectorSetR10Node_StackR9Node_ListP14PhaseIdealLoop(ptr noundef nonnull align 8 dereferenceable(32) %23, ptr noundef nonnull align 8 dereferenceable(32) %24, ptr noundef nonnull align 8 dereferenceable(28) %25, ptr noundef %26)
  store i1 true, ptr %7, align 1
  br label %29

27:                                               ; preds = %18
  br label %28

28:                                               ; preds = %27
  store i1 false, ptr %7, align 1
  br label %29

29:                                               ; preds = %28, %21, %16
  %30 = load i1, ptr %7, align 1
  ret i1 %30
}