; Function Attrs: mustprogress nounwind uwtable
define hidden noundef zeroext i1 @_ZNK22ShenandoahBarrierSetC214optimize_loopsEP14PhaseIdealLoop12LoopOptsModeR9VectorSetR10Node_StackR9Node_List(ptr nocapture nonnull readnone align 8 %0, ptr noundef %1, i32 noundef %2, ptr noundef nonnull align 8 dereferenceable(32) %3, ptr noundef nonnull align 8 dereferenceable(32) %4, ptr noundef nonnull align 8 dereferenceable(28) %5) unnamed_addr #1 align 2 {
  switch i32 %2, label %9 [
    i32 3, label %7
    i32 4, label %8
  ]

7:                                                ; preds = %6
  tail call void @_ZN26ShenandoahBarrierC2Support14pin_and_expandEP14PhaseIdealLoop(ptr noundef %1) #14
  br label %9

8:                                                ; preds = %6
  store i32 0, ptr %3, align 8
  tail call void @_ZN26ShenandoahBarrierC2Support24optimize_after_expansionER9VectorSetR10Node_StackR9Node_ListP14PhaseIdealLoop(ptr noundef nonnull align 8 dereferenceable(32) %3, ptr noundef nonnull align 8 dereferenceable(32) %4, ptr noundef nonnull align 8 dereferenceable(28) %5, ptr noundef %1) #14
  br label %9

9:                                                ; preds = %6, %8, %7
  %.0 = phi i1 [ true, %7 ], [ true, %8 ], [ false, %6 ]
  ret i1 %.0
}